target datalayout = "e-m:e-p270:32:32-p271:32:32-p272:64:64-i64:64-i128:128-f80:128-n8:16:32:64-S128"
target triple = "x86_64-pc-linux-gnu"

%struct.SDL_Property = type { i32, %union.anon, ptr, ptr, ptr }
%union.anon = type { ptr }

; Function Attrs: nounwind uwtable
define internal void @SDL_FreePropertyWithCleanup(ptr noundef %0, ptr noundef %1, ptr noundef %2, i1 noundef zeroext %3) #0 {
  %5 = alloca ptr, align 8
  %6 = alloca ptr, align 8
  %7 = alloca ptr, align 8
  %8 = alloca i8, align 1
  %9 = alloca ptr, align 8
  store ptr %0, ptr %5, align 8
  store ptr %1, ptr %6, align 8
  store ptr %2, ptr %7, align 8
  %10 = zext i1 %3 to i8
  store i8 %10, ptr %8, align 1
  call void @llvm.lifetime.start.p0(i64 8, ptr %9) #6
  %11 = load ptr, ptr %6, align 8
  store ptr %11, ptr %9, align 8
  %12 = load ptr, ptr %9, align 8
  %13 = icmp ne ptr %12, null
  br i1 %13, label %14, label %46

14:                                               ; preds = %4
  %15 = load ptr, ptr %9, align 8
  %16 = getelementptr inbounds nuw %struct.SDL_Property, ptr %15, i32 0, i32 0
  %17 = load i32, ptr %16, align 8
  switch i32 %17, label %41 [
    i32 1, label %18
    i32 2, label %37
  ]

18:                                               ; preds = %14
  %19 = load ptr, ptr %9, align 8
  %20 = getelementptr inbounds nuw %struct.SDL_Property, ptr %19, i32 0, i32 3
  %21 = load ptr, ptr %20, align 8
  %22 = icmp ne ptr %21, null
  br i1 %22, label %23, label %36

23:                                               ; preds = %18
  %24 = load i8, ptr %8, align 1, !range !3, !noundef !4
  %25 = trunc i8 %24 to i1
  br i1 %25, label %26, label %36

26:                                               ; preds = %23
  %27 = load ptr, ptr %9, align 8
  %28 = getelementptr inbounds nuw %struct.SDL_Property, ptr %27, i32 0, i32 3
  %29 = load ptr, ptr %28, align 8
  %30 = load ptr, ptr %9, align 8
  %31 = getelementptr inbounds nuw %struct.SDL_Property, ptr %30, i32 0, i32 4
  %32 = load ptr, ptr %31, align 8
  %33 = load ptr, ptr %9, align 8
  %34 = getelementptr inbounds nuw %struct.SDL_Property, ptr %33, i32 0, i32 1
  %35 = load ptr, ptr %34, align 8
  call void %29(ptr noundef %32, ptr noundef %35)
  br label %36

36:                                               ; preds = %26, %23, %18
  br label %42

37:                                               ; preds = %14
  %38 = load ptr, ptr %9, align 8
  %39 = getelementptr inbounds nuw %struct.SDL_Property, ptr %38, i32 0, i32 1
  %40 = load ptr, ptr %39, align 8
  call void @SDL_free_REAL(ptr noundef %40)
  br label %42

41:                                               ; preds = %14
  br label %42

42:                                               ; preds = %41, %37, %36
  %43 = load ptr, ptr %9, align 8
  %44 = getelementptr inbounds nuw %struct.SDL_Property, ptr %43, i32 0, i32 2
  %45 = load ptr, ptr %44, align 8
  call void @SDL_free_REAL(ptr noundef %45)
  br label %46

46:                                               ; preds = %42, %4
  %47 = load ptr, ptr %5, align 8
  call void @SDL_free_REAL(ptr noundef %47)
  %48 = load ptr, ptr %6, align 8
  call void @SDL_free_REAL(ptr noundef %48)
  call void @llvm.lifetime.end.p0(i64 8, ptr %9) #6
  ret void
}

; Function Attrs: nounwind uwtable
define hidden zeroext i1 @SDL_ClearProperty_REAL(i32 noundef %0, ptr noundef %1) #0 {
  %3 = alloca i32, align 4
  %4 = alloca ptr, align 8
  store i32 %0, ptr %3, align 4
  store ptr %1, ptr %4, align 8
  %5 = load i32, ptr %3, align 4
  %6 = load ptr, ptr %4, align 8
  %7 = call zeroext i1 @SDL_PrivateSetProperty(i32 noundef %5, ptr noundef %6, ptr noundef null)
  ret i1 %7
}

; Function Attrs: nounwind uwtable
define hidden zeroext i1 @SDL_SetPointerPropertyWithCleanup_REAL(i32 noundef %0, ptr noundef %1, ptr noundef %2, ptr noundef %3, ptr noundef %4) #0 {
  %6 = alloca i1, align 1
  %7 = alloca i32, align 4
  %8 = alloca ptr, align 8
  %9 = alloca ptr, align 8
  %10 = alloca ptr, align 8
  %11 = alloca ptr, align 8
  %12 = alloca ptr, align 8
  %13 = alloca i32, align 4
  store i32 %0, ptr %7, align 4
  store ptr %1, ptr %8, align 8
  store ptr %2, ptr %9, align 8
  store ptr %3, ptr %10, align 8
  store ptr %4, ptr %11, align 8
  call void @llvm.lifetime.start.p0(i64 8, ptr %12) #6
  %14 = load ptr, ptr %9, align 8
  %15 = icmp ne ptr %14, null
  br i1 %15, label %27, label %16

16:                                               ; preds = %5
  %17 = load ptr, ptr %10, align 8
  %18 = icmp ne ptr %17, null
  br i1 %18, label %19, label %23

19:                                               ; preds = %16
  %20 = load ptr, ptr %10, align 8
  %21 = load ptr, ptr %11, align 8
  %22 = load ptr, ptr %9, align 8
  call void %20(ptr noundef %21, ptr noundef %22)
  br label %23

23:                                               ; preds = %19, %16
  %24 = load i32, ptr %7, align 4
  %25 = load ptr, ptr %8, align 8
  %26 = call zeroext i1 @SDL_ClearProperty_REAL(i32 noundef %24, ptr noundef %25)
  store i1 %26, ptr %6, align 1
  store i32 1, ptr %13, align 4
  br label %56

27:                                               ; preds = %5
  %28 = call noalias ptr @SDL_calloc_REAL(i64 noundef 1, i64 noundef 40) #7
  store ptr %28, ptr %12, align 8
  %29 = load ptr, ptr %12, align 8
  %30 = icmp ne ptr %29, null
  br i1 %30, label %40, label %31

31:                                               ; preds = %27
  %32 = load ptr, ptr %10, align 8
  %33 = icmp ne ptr %32, null
  br i1 %33, label %34, label %38

34:                                               ; preds = %31
  %35 = load ptr, ptr %10, align 8
  %36 = load ptr, ptr %11, align 8
  %37 = load ptr, ptr %9, align 8
  call void %35(ptr noundef %36, ptr noundef %37)
  br label %38

38:                                               ; preds = %34, %31
  %39 = load ptr, ptr %12, align 8
  call void @SDL_FreePropertyWithCleanup(ptr noundef null, ptr noundef %39, ptr noundef null, i1 noundef zeroext false)
  store i1 false, ptr %6, align 1
  store i32 1, ptr %13, align 4
  br label %56

40:                                               ; preds = %27
  %41 = load ptr, ptr %12, align 8
  %42 = getelementptr inbounds nuw %struct.SDL_Property, ptr %41, i32 0, i32 0
  store i32 1, ptr %42, align 8
  %43 = load ptr, ptr %9, align 8
  %44 = load ptr, ptr %12, align 8
  %45 = getelementptr inbounds nuw %struct.SDL_Property, ptr %44, i32 0, i32 1
  store ptr %43, ptr %45, align 8
  %46 = load ptr, ptr %10, align 8
  %47 = load ptr, ptr %12, align 8
  %48 = getelementptr inbounds nuw %struct.SDL_Property, ptr %47, i32 0, i32 3
  store ptr %46, ptr %48, align 8
  %49 = load ptr, ptr %11, align 8
  %50 = load ptr, ptr %12, align 8
  %51 = getelementptr inbounds nuw %struct.SDL_Property, ptr %50, i32 0, i32 4
  store ptr %49, ptr %51, align 8
  %52 = load i32, ptr %7, align 4
  %53 = load ptr, ptr %8, align 8
  %54 = load ptr, ptr %12, align 8
  %55 = call zeroext i1 @SDL_PrivateSetProperty(i32 noundef %52, ptr noundef %53, ptr noundef %54)
  store i1 %55, ptr %6, align 1
  store i32 1, ptr %13, align 4
  br label %56

56:                                               ; preds = %40, %38, %23
  call void @llvm.lifetime.end.p0(i64 8, ptr %12) #6
  %57 = load i1, ptr %6, align 1
  ret i1 %57
}

; Function Attrs: nounwind uwtable
define hidden zeroext i1 @SDL_SetFreeableProperty(i32 noundef %0, ptr noundef %1, ptr noundef %2) #0 {
  %4 = alloca i32, align 4
  %5 = alloca ptr, align 8
  %6 = alloca ptr, align 8
  store i32 %0, ptr %4, align 4
  store ptr %1, ptr %5, align 8
  store ptr %2, ptr %6, align 8
  %7 = load i32, ptr %4, align 4
  %8 = load ptr, ptr %5, align 8
  %9 = load ptr, ptr %6, align 8
  %10 = call zeroext i1 @SDL_SetPointerPropertyWithCleanup_REAL(i32 noundef %7, ptr noundef %8, ptr noundef %9, ptr noundef @CleanupFreeableProperty, ptr noundef null)
  ret i1 %10
}