; Function Attrs: nounwind uwtable
define hidden zeroext i1 @SDL_SetFreeableProperty(i32 noundef %0, ptr noundef %1, ptr noundef %2) local_unnamed_addr #0 {
  %.not.i = icmp eq ptr %2, null
  br i1 %.not.i, label %4, label %6

4:                                                ; preds = %3
  tail call void @SDL_free_REAL(ptr noundef null) #6
  %5 = tail call fastcc zeroext i1 @SDL_PrivateSetProperty(i32 noundef %0, ptr noundef %1, ptr noundef null)
  br label %SDL_SetPointerPropertyWithCleanup_REAL.exit

6:                                                ; preds = %3
  %7 = tail call noalias dereferenceable_or_null(40) ptr @SDL_calloc_REAL(i64 noundef 1, i64 noundef 40) #7
  %.not29.i = icmp eq ptr %7, null
  br i1 %.not29.i, label %8, label %9

8:                                                ; preds = %6
  tail call void @SDL_free_REAL(ptr noundef nonnull %2) #6
  tail call void @SDL_free_REAL(ptr noundef null) #6
  tail call void @SDL_free_REAL(ptr noundef null) #6
  br label %SDL_SetPointerPropertyWithCleanup_REAL.exit

9:                                                ; preds = %6
  store i32 1, ptr %7, align 8
  %10 = getelementptr inbounds nuw i8, ptr %7, i64 8
  store ptr %2, ptr %10, align 8
  %11 = getelementptr inbounds nuw i8, ptr %7, i64 24
  store ptr @CleanupFreeableProperty, ptr %11, align 8
  %12 = getelementptr inbounds nuw i8, ptr %7, i64 32
  store ptr null, ptr %12, align 8
  %13 = tail call fastcc zeroext i1 @SDL_PrivateSetProperty(i32 noundef %0, ptr noundef %1, ptr noundef nonnull %7)
  br label %SDL_SetPointerPropertyWithCleanup_REAL.exit

SDL_SetPointerPropertyWithCleanup_REAL.exit:      ; preds = %4, %8, %9
  %.0.i = phi i1 [ %13, %9 ], [ false, %8 ], [ %5, %4 ]
  ret i1 %.0.i
}